
Discarded input sections

 .note.GNU-stack
                0x0000000000000000        0x0 /opt/linux/x86-arm/aarch64-mix210-linux/host_bin/../target/usr/lib/crti.o
 .note.GNU-stack
                0x0000000000000000        0x0 /opt/linux/x86-arm/aarch64-mix210-linux/host_bin/../lib/gcc/aarch64-linux-gnu/7.3.0/crtbeginS.o
 .note.GNU-stack
                0x0000000000000000        0x0 build/arm11-gcc-uClibc-linux-gk7605v100/obj/./netcam_update.o
 .note.GNU-stack
                0x0000000000000000        0x0 build/arm11-gcc-uClibc-linux-gk7605v100/obj/./parser_cfg.o
 .note.GNU-stack
                0x0000000000000000        0x0 build/arm11-gcc-uClibc-linux-gk7605v100/obj/./get_p2p_id.o
 .note.GNU-stack
                0x0000000000000000        0x0 build/arm11-gcc-uClibc-linux-gk7605v100/obj/./flash_ctl.o
 .note.GNU-stack
                0x0000000000000000        0x0 /opt/linux/x86-arm/aarch64-mix210-linux/host_bin/../lib/gcc/aarch64-linux-gnu/7.3.0/crtendS.o
 .note.GNU-stack
                0x0000000000000000        0x0 /opt/linux/x86-arm/aarch64-mix210-linux/host_bin/../target/usr/lib/crtn.o

Memory Configuration

Name             Origin             Length             Attributes
*default*        0x0000000000000000 0xffffffffffffffff

Linker script and memory map

LOAD /opt/linux/x86-arm/aarch64-mix210-linux/host_bin/../target/usr/lib/crti.o
LOAD /opt/linux/x86-arm/aarch64-mix210-linux/host_bin/../lib/gcc/aarch64-linux-gnu/7.3.0/crtbeginS.o
LOAD build/arm11-gcc-uClibc-linux-gk7605v100/obj/./netcam_update.o
LOAD build/arm11-gcc-uClibc-linux-gk7605v100/obj/./parser_cfg.o
LOAD build/arm11-gcc-uClibc-linux-gk7605v100/obj/./get_p2p_id.o
LOAD build/arm11-gcc-uClibc-linux-gk7605v100/obj/./flash_ctl.o
LOAD /opt/linux/x86-arm/aarch64-mix210-linux/host_bin/../lib/gcc/aarch64-linux-gnu/7.3.0/libgcc.a
LOAD /opt/linux/x86-arm/aarch64-mix210-linux/host_bin/../lib/gcc/aarch64-linux-gnu/7.3.0/../../../../aarch64-linux-gnu/lib/../lib64/libgcc_s.so
LOAD /opt/linux/x86-arm/aarch64-mix210-linux/host_bin/../target/usr/lib/libc.so
START GROUP
LOAD /opt/linux/x86-arm/aarch64-mix210-linux/host_bin/../target/lib/libc.so.6
LOAD /opt/linux/x86-arm/aarch64-mix210-linux/host_bin/../target/usr/lib/libc_nonshared.a
LOAD /opt/linux/x86-arm/aarch64-mix210-linux/host_bin/../target/lib/ld-linux-aarch64.so.1
END GROUP
LOAD /opt/linux/x86-arm/aarch64-mix210-linux/host_bin/../lib/gcc/aarch64-linux-gnu/7.3.0/libgcc.a
LOAD /opt/linux/x86-arm/aarch64-mix210-linux/host_bin/../lib/gcc/aarch64-linux-gnu/7.3.0/../../../../aarch64-linux-gnu/lib/../lib64/libgcc_s.so
LOAD /opt/linux/x86-arm/aarch64-mix210-linux/host_bin/../lib/gcc/aarch64-linux-gnu/7.3.0/crtendS.o
LOAD /opt/linux/x86-arm/aarch64-mix210-linux/host_bin/../target/usr/lib/crtn.o
                0x0000000000000190                . = (SEGMENT_START ("text-segment", 0x0) + SIZEOF_HEADERS)

.note.gnu.build-id
 *(.note.gnu.build-id)

.hash           0x0000000000000190      0x35c
 *(.hash)
 .hash          0x0000000000000190      0x35c /opt/linux/x86-arm/aarch64-mix210-linux/host_bin/../target/usr/lib/crti.o

.gnu.hash       0x00000000000004f0      0x170
 *(.gnu.hash)
 .gnu.hash      0x00000000000004f0      0x170 /opt/linux/x86-arm/aarch64-mix210-linux/host_bin/../target/usr/lib/crti.o

.dynsym         0x0000000000000660      0xae0
 *(.dynsym)
 .dynsym        0x0000000000000660      0xae0 /opt/linux/x86-arm/aarch64-mix210-linux/host_bin/../target/usr/lib/crti.o

.dynstr         0x0000000000001140      0x623
 *(.dynstr)
 .dynstr        0x0000000000001140      0x623 /opt/linux/x86-arm/aarch64-mix210-linux/host_bin/../target/usr/lib/crti.o

.gnu.version    0x0000000000001764       0xe8
 *(.gnu.version)
 .gnu.version   0x0000000000001764       0xe8 /opt/linux/x86-arm/aarch64-mix210-linux/host_bin/../target/usr/lib/crti.o

.gnu.version_d  0x0000000000001850        0x0
 *(.gnu.version_d)
 .gnu.version_d
                0x0000000000001850        0x0 /opt/linux/x86-arm/aarch64-mix210-linux/host_bin/../target/usr/lib/crti.o

.gnu.version_r  0x0000000000001850       0x20
 *(.gnu.version_r)
 .gnu.version_r
                0x0000000000001850       0x20 /opt/linux/x86-arm/aarch64-mix210-linux/host_bin/../target/usr/lib/crti.o

.rela.dyn       0x0000000000001870      0x150
 *(.rela.init)
 *(.rela.text .rela.text.* .rela.gnu.linkonce.t.*)
 *(.rela.fini)
 *(.rela.rodata .rela.rodata.* .rela.gnu.linkonce.r.*)
 *(.rela.data .rela.data.* .rela.gnu.linkonce.d.*)
 .rela.data.rel.local
                0x0000000000001870       0x18 /opt/linux/x86-arm/aarch64-mix210-linux/host_bin/../target/usr/lib/crti.o
 *(.rela.tdata .rela.tdata.* .rela.gnu.linkonce.td.*)
 *(.rela.tbss .rela.tbss.* .rela.gnu.linkonce.tb.*)
 *(.rela.ctors)
 *(.rela.dtors)
 *(.rela.got)
 .rela.got      0x0000000000001888      0x108 /opt/linux/x86-arm/aarch64-mix210-linux/host_bin/../target/usr/lib/crti.o
 *(.rela.bss .rela.bss.* .rela.gnu.linkonce.b.*)
 *(.rela.ifunc)
 .rela.ifunc    0x0000000000001990        0x0 /opt/linux/x86-arm/aarch64-mix210-linux/host_bin/../target/usr/lib/crti.o
 .rela.init_array
                0x0000000000001990       0x18 /opt/linux/x86-arm/aarch64-mix210-linux/host_bin/../target/usr/lib/crti.o
 .rela.fini_array
                0x00000000000019a8       0x18 /opt/linux/x86-arm/aarch64-mix210-linux/host_bin/../target/usr/lib/crti.o

.rela.plt       0x00000000000019c0      0x7e0
 *(.rela.plt)
 .rela.plt      0x00000000000019c0      0x7e0 /opt/linux/x86-arm/aarch64-mix210-linux/host_bin/../target/usr/lib/crti.o
 *(.rela.iplt)

.init           0x00000000000021a0       0x14
 *(SORT_NONE(.init))
 .init          0x00000000000021a0        0xc /opt/linux/x86-arm/aarch64-mix210-linux/host_bin/../target/usr/lib/crti.o
                0x00000000000021a0                _init
 .init          0x00000000000021ac        0x8 /opt/linux/x86-arm/aarch64-mix210-linux/host_bin/../target/usr/lib/crtn.o

.plt            0x00000000000021c0      0x560
 *(.plt)
 .plt           0x00000000000021c0      0x560 /opt/linux/x86-arm/aarch64-mix210-linux/host_bin/../target/usr/lib/crti.o
 *(.iplt)

.text           0x0000000000002720     0x6208
 *(.text.unlikely .text.*_unlikely .text.unlikely.*)
 *(.text.exit .text.exit.*)
 *(.text.startup .text.startup.*)
 *(.text.hot .text.hot.*)
 *(SORT_BY_NAME(.text.sorted.*))
 *(.text .stub .text.* .gnu.linkonce.t.*)
 .text          0x0000000000002720       0x14 /opt/linux/x86-arm/aarch64-mix210-linux/host_bin/../target/usr/lib/crti.o
 *fill*         0x0000000000002734        0x4 1f2003d5
 .text          0x0000000000002738       0xbc /opt/linux/x86-arm/aarch64-mix210-linux/host_bin/../lib/gcc/aarch64-linux-gnu/7.3.0/crtbeginS.o
 *fill*         0x00000000000027f4        0x4 1f2003d5
 .text          0x00000000000027f8      0xca4 build/arm11-gcc-uClibc-linux-gk7605v100/obj/./netcam_update.o
                0x00000000000027f8                netcam_update_init
                0x00000000000028e8                netcam_get_update_status
                0x0000000000002900                netcam_update_feed_dog
                0x0000000000002928                netcam_update_malloc
                0x0000000000002a08                netcam_update
                0x0000000000002b60                netcam_update_mail_style
                0x0000000000002dd0                netcam_update_get_process
                0x0000000000002de8                netcam_update_for_sdcard
                0x0000000000003210                netcam_is_prepare_update
                0x0000000000003220                netcam_update_relase_system_resource
                0x0000000000003430                netcam_update_set_down_load_cb
                0x0000000000003490                netcam_update_is_save_md5
 *fill*         0x000000000000349c        0x4 1f2003d5
 .text          0x00000000000034a0     0x387c build/arm11-gcc-uClibc-linux-gk7605v100/obj/./parser_cfg.o
                0x00000000000040d0                set_upgrade_end
                0x00000000000040e8                get_upgrade_rate
                0x00000000000041b8                get_mtdinfo_by_proc_mtd
                0x00000000000043d0                get_all_mtd_info_by_proc
                0x00000000000045f0                check_upgrade_header
                0x0000000000004770                pack_product_file
                0x0000000000004c40                pack_upgrade_file
                0x0000000000005020                unpack_upgrade_file
                0x0000000000005640                verify_upgrade_file
                0x0000000000005a18                verify_upgrade_buff
                0x0000000000005d38                get_upgradeinfo_by_file
                0x0000000000005f70                get_upgradeinfo_by_buff
                0x0000000000006150                judge_upgrade_by_info
                0x0000000000006248                upgrade_flash_by_buf
                0x0000000000006718                upgrade_flash_by_file
 *fill*         0x0000000000006d1c        0x4 1f2003d5
 .text          0x0000000000006d20      0x274 build/arm11-gcc-uClibc-linux-gk7605v100/obj/./get_p2p_id.o
                0x0000000000006ef8                netcam_p2pid_init
 *fill*         0x0000000000006f94        0x4 1f2003d5
 .text          0x0000000000006f98     0x1990 build/arm11-gcc-uClibc-linux-gk7605v100/obj/./flash_ctl.o
                0x0000000000006f98                get_mtd_info
                0x00000000000070c8                dump_flash
                0x0000000000007330                verify_flash
                0x0000000000007678                erase_flash_mtd
                0x0000000000007910                erase_flash_all
                0x0000000000007b78                flash_copy
                0x0000000000007e30                make_dev_info_crc32
                0x0000000000007e98                check_dev_info_crc32
                0x0000000000007f30                save_info_to_mtd_reserve
                0x0000000000008438                load_info_to_mtd_reserve
 .text          0x0000000000008928        0x0 /opt/linux/x86-arm/aarch64-mix210-linux/host_bin/../lib/gcc/aarch64-linux-gnu/7.3.0/crtendS.o
 .text          0x0000000000008928        0x0 /opt/linux/x86-arm/aarch64-mix210-linux/host_bin/../target/usr/lib/crtn.o
 *(.gnu.warning)

.fini           0x0000000000008928       0x10
 *(SORT_NONE(.fini))
 .fini          0x0000000000008928        0x8 /opt/linux/x86-arm/aarch64-mix210-linux/host_bin/../target/usr/lib/crti.o
                0x0000000000008928                _fini
 .fini          0x0000000000008930        0x8 /opt/linux/x86-arm/aarch64-mix210-linux/host_bin/../target/usr/lib/crtn.o
                [!provide]                        PROVIDE (__etext = .)
                [!provide]                        PROVIDE (_etext = .)
                [!provide]                        PROVIDE (etext = .)

.rodata         0x0000000000008938     0x2ff0
 *(.rodata .rodata.* .gnu.linkonce.r.*)
 .rodata.str1.8
                0x0000000000008938      0x825 build/arm11-gcc-uClibc-linux-gk7605v100/obj/./netcam_update.o
                                        0x82d (size before relaxing)
 *fill*         0x000000000000915d        0x3 
 .rodata        0x0000000000009160      0x1c6 build/arm11-gcc-uClibc-linux-gk7605v100/obj/./parser_cfg.o
 *fill*         0x0000000000009326        0x2 
 .rodata.str1.8
                0x0000000000009328     0x18f1 build/arm11-gcc-uClibc-linux-gk7605v100/obj/./parser_cfg.o
 *fill*         0x000000000000ac19        0x7 
 .rodata.str1.8
                0x000000000000ac20      0x10d build/arm11-gcc-uClibc-linux-gk7605v100/obj/./get_p2p_id.o
 *fill*         0x000000000000ad2d        0x3 
 .rodata        0x000000000000ad30       0xc9 build/arm11-gcc-uClibc-linux-gk7605v100/obj/./flash_ctl.o
 *fill*         0x000000000000adf9        0x7 
 .rodata.str1.8
                0x000000000000ae00      0xb28 build/arm11-gcc-uClibc-linux-gk7605v100/obj/./flash_ctl.o
                                        0xb30 (size before relaxing)

.rodata1
 *(.rodata1)

.eh_frame_hdr   0x000000000000b928      0x184
 *(.eh_frame_hdr)
 .eh_frame_hdr  0x000000000000b928      0x184 /opt/linux/x86-arm/aarch64-mix210-linux/host_bin/../lib/gcc/aarch64-linux-gnu/7.3.0/crtbeginS.o
                0x000000000000b928                __GNU_EH_FRAME_HDR
 *(.eh_frame_entry .eh_frame_entry.*)

.eh_frame       0x000000000000bab0     0x1414
 *(.eh_frame)
 .eh_frame      0x000000000000bab0       0x78 /opt/linux/x86-arm/aarch64-mix210-linux/host_bin/../lib/gcc/aarch64-linux-gnu/7.3.0/crtbeginS.o
 .eh_frame      0x000000000000bb28      0x310 build/arm11-gcc-uClibc-linux-gk7605v100/obj/./netcam_update.o
                                        0x320 (size before relaxing)
 .eh_frame      0x000000000000be38      0x980 build/arm11-gcc-uClibc-linux-gk7605v100/obj/./parser_cfg.o
                                        0x998 (size before relaxing)
 .eh_frame      0x000000000000c7b8       0x88 build/arm11-gcc-uClibc-linux-gk7605v100/obj/./get_p2p_id.o
                                         0x98 (size before relaxing)
 .eh_frame      0x000000000000c840      0x680 build/arm11-gcc-uClibc-linux-gk7605v100/obj/./flash_ctl.o
                                        0x698 (size before relaxing)
 .eh_frame      0x000000000000cec0        0x4 /opt/linux/x86-arm/aarch64-mix210-linux/host_bin/../lib/gcc/aarch64-linux-gnu/7.3.0/crtendS.o
 *(.eh_frame.*)

.gcc_except_table
 *(.gcc_except_table .gcc_except_table.*)

.gnu_extab
 *(.gnu_extab*)

.exception_ranges
 *(.exception_ranges*)
                0x000000000001dda8                . = DATA_SEGMENT_ALIGN (CONSTANT (MAXPAGESIZE), CONSTANT (COMMONPAGESIZE))

.eh_frame
 *(.eh_frame)
 *(.eh_frame.*)

.gnu_extab
 *(.gnu_extab)

.gcc_except_table
 *(.gcc_except_table .gcc_except_table.*)

.exception_ranges
 *(.exception_ranges*)

.tdata
 *(.tdata .tdata.* .gnu.linkonce.td.*)

.tbss
 *(.tbss .tbss.* .gnu.linkonce.tb.*)
 *(.tcommon)

.preinit_array
 *(.preinit_array)

.init_array     0x000000000001dda8        0x8
 *(SORT_BY_INIT_PRIORITY(.init_array.*) SORT_BY_INIT_PRIORITY(.ctors.*))
 *(.init_array EXCLUDE_FILE(*crtend?.o *crtend.o *crtbegin?.o *crtbegin.o) .ctors)
 .init_array    0x000000000001dda8        0x8 /opt/linux/x86-arm/aarch64-mix210-linux/host_bin/../lib/gcc/aarch64-linux-gnu/7.3.0/crtbeginS.o

.fini_array     0x000000000001ddb0        0x8
 *(SORT_BY_INIT_PRIORITY(.fini_array.*) SORT_BY_INIT_PRIORITY(.dtors.*))
 *(.fini_array EXCLUDE_FILE(*crtend?.o *crtend.o *crtbegin?.o *crtbegin.o) .dtors)
 .fini_array    0x000000000001ddb0        0x8 /opt/linux/x86-arm/aarch64-mix210-linux/host_bin/../lib/gcc/aarch64-linux-gnu/7.3.0/crtbeginS.o

.ctors
 *crtbegin.o(.ctors)
 *crtbegin?.o(.ctors)
 *(EXCLUDE_FILE(*crtend?.o *crtend.o) .ctors)
 *(SORT_BY_NAME(.ctors.*))
 *(.ctors)

.dtors
 *crtbegin.o(.dtors)
 *crtbegin?.o(.dtors)
 *(EXCLUDE_FILE(*crtend?.o *crtend.o) .dtors)
 *(SORT_BY_NAME(.dtors.*))
 *(.dtors)

.jcr
 *(.jcr)

.data.rel.ro    0x000000000001ddb8        0x0
 *(.data.rel.ro.local* .gnu.linkonce.d.rel.ro.local.*)
 *(.data.rel.ro .data.rel.ro.* .gnu.linkonce.d.rel.ro.*)
 .data.rel.ro   0x000000000001ddb8        0x0 /opt/linux/x86-arm/aarch64-mix210-linux/host_bin/../target/usr/lib/crti.o

.dynamic        0x000000000001ddb8      0x1d0
 *(.dynamic)
 .dynamic       0x000000000001ddb8      0x1d0 /opt/linux/x86-arm/aarch64-mix210-linux/host_bin/../target/usr/lib/crti.o
                0x000000000001ddb8                _DYNAMIC

.got            0x000000000001df88       0x60
 *(.got)
 .got           0x000000000001df88       0x60 /opt/linux/x86-arm/aarch64-mix210-linux/host_bin/../target/usr/lib/crti.o
                0x000000000001df88                _GLOBAL_OFFSET_TABLE_
 *(.igot)
                0x000000000001dfe8                . = DATA_SEGMENT_RELRO_END (., 0x18)

.got.plt        0x000000000001dfe8      0x2b8
 *(.got.plt)
 .got.plt       0x000000000001dfe8      0x2b8 /opt/linux/x86-arm/aarch64-mix210-linux/host_bin/../target/usr/lib/crti.o
 *(.igot.plt)

.data           0x000000000001e2a0       0x10
                [!provide]                        PROVIDE (__data_start = .)
 *(.data .data.* .gnu.linkonce.d.*)
 .data          0x000000000001e2a0        0x0 /opt/linux/x86-arm/aarch64-mix210-linux/host_bin/../target/usr/lib/crti.o
 .data          0x000000000001e2a0        0x0 /opt/linux/x86-arm/aarch64-mix210-linux/host_bin/../lib/gcc/aarch64-linux-gnu/7.3.0/crtbeginS.o
 .data.rel.local
                0x000000000001e2a0        0x8 /opt/linux/x86-arm/aarch64-mix210-linux/host_bin/../lib/gcc/aarch64-linux-gnu/7.3.0/crtbeginS.o
                0x000000000001e2a0                __dso_handle
 .data          0x000000000001e2a8        0x8 build/arm11-gcc-uClibc-linux-gk7605v100/obj/./netcam_update.o
                0x000000000001e2a8                shmidFile
                0x000000000001e2ac                shmid
 .data          0x000000000001e2b0        0x0 build/arm11-gcc-uClibc-linux-gk7605v100/obj/./parser_cfg.o
 .data          0x000000000001e2b0        0x0 build/arm11-gcc-uClibc-linux-gk7605v100/obj/./get_p2p_id.o
 .data          0x000000000001e2b0        0x0 build/arm11-gcc-uClibc-linux-gk7605v100/obj/./flash_ctl.o
 .data          0x000000000001e2b0        0x0 /opt/linux/x86-arm/aarch64-mix210-linux/host_bin/../lib/gcc/aarch64-linux-gnu/7.3.0/crtendS.o
 .data          0x000000000001e2b0        0x0 /opt/linux/x86-arm/aarch64-mix210-linux/host_bin/../target/usr/lib/crtn.o

.tm_clone_table
                0x000000000001e2b0        0x0
 .tm_clone_table
                0x000000000001e2b0        0x0 /opt/linux/x86-arm/aarch64-mix210-linux/host_bin/../lib/gcc/aarch64-linux-gnu/7.3.0/crtbeginS.o
 .tm_clone_table
                0x000000000001e2b0        0x0 /opt/linux/x86-arm/aarch64-mix210-linux/host_bin/../lib/gcc/aarch64-linux-gnu/7.3.0/crtendS.o

.data1
 *(.data1)
                [!provide]                        PROVIDE (_edata = .)
                [!provide]                        PROVIDE (edata = .)
                0x000000000001e2b0                . = .
                [!provide]                        PROVIDE (__bss_start = .)
                [!provide]                        PROVIDE (__bss_start__ = .)

.bss            0x000000000001e2b0       0xb8
 *(.dynbss)
 .dynbss        0x000000000001e2b0        0x0 /opt/linux/x86-arm/aarch64-mix210-linux/host_bin/../target/usr/lib/crti.o
 *(.bss .bss.* .gnu.linkonce.b.*)
 .bss           0x000000000001e2b0        0x0 /opt/linux/x86-arm/aarch64-mix210-linux/host_bin/../target/usr/lib/crti.o
 .bss           0x000000000001e2b0        0x1 /opt/linux/x86-arm/aarch64-mix210-linux/host_bin/../lib/gcc/aarch64-linux-gnu/7.3.0/crtbeginS.o
 *fill*         0x000000000001e2b1        0x7 
 .bss           0x000000000001e2b8       0x60 build/arm11-gcc-uClibc-linux-gk7605v100/obj/./netcam_update.o
                0x000000000001e300                shmidFileSize
                0x000000000001e308                shmFile
                0x000000000001e310                shareInfo
 .bss           0x000000000001e318       0x18 build/arm11-gcc-uClibc-linux-gk7605v100/obj/./parser_cfg.o
 .bss           0x000000000001e330        0x0 build/arm11-gcc-uClibc-linux-gk7605v100/obj/./get_p2p_id.o
 .bss           0x000000000001e330       0x34 build/arm11-gcc-uClibc-linux-gk7605v100/obj/./flash_ctl.o
 .bss           0x000000000001e364        0x0 /opt/linux/x86-arm/aarch64-mix210-linux/host_bin/../lib/gcc/aarch64-linux-gnu/7.3.0/crtendS.o
 .bss           0x000000000001e364        0x0 /opt/linux/x86-arm/aarch64-mix210-linux/host_bin/../target/usr/lib/crtn.o
 *(COMMON)
                0x000000000001e368                . = ALIGN ((. != 0x0)?0x8:0x1)
 *fill*         0x000000000001e364        0x4 
                [!provide]                        PROVIDE (_bss_end__ = .)
                [!provide]                        PROVIDE (__bss_end__ = .)
                0x000000000001e368                . = ALIGN (0x8)
                0x000000000001e368                . = SEGMENT_START ("ldata-segment", .)
                0x000000000001e368                . = ALIGN (0x8)
                [!provide]                        PROVIDE (__end__ = .)
                [!provide]                        PROVIDE (_end = .)
                [!provide]                        PROVIDE (end = .)
                0x000000000001e368                . = DATA_SEGMENT_END (.)

.stab
 *(.stab)

.stabstr
 *(.stabstr)

.stab.excl
 *(.stab.excl)

.stab.exclstr
 *(.stab.exclstr)

.stab.index
 *(.stab.index)

.stab.indexstr
 *(.stab.indexstr)

.comment        0x0000000000000000       0x16
 *(.comment)
 .comment       0x0000000000000000       0x16 /opt/linux/x86-arm/aarch64-mix210-linux/host_bin/../lib/gcc/aarch64-linux-gnu/7.3.0/crtbeginS.o
                                         0x17 (size before relaxing)
 .comment       0x0000000000000016       0x17 build/arm11-gcc-uClibc-linux-gk7605v100/obj/./netcam_update.o
 .comment       0x0000000000000016       0x17 build/arm11-gcc-uClibc-linux-gk7605v100/obj/./parser_cfg.o
 .comment       0x0000000000000016       0x17 build/arm11-gcc-uClibc-linux-gk7605v100/obj/./get_p2p_id.o
 .comment       0x0000000000000016       0x17 build/arm11-gcc-uClibc-linux-gk7605v100/obj/./flash_ctl.o
 .comment       0x0000000000000016       0x17 /opt/linux/x86-arm/aarch64-mix210-linux/host_bin/../lib/gcc/aarch64-linux-gnu/7.3.0/crtendS.o

.gnu.build.attributes
 *(.gnu.build.attributes .gnu.build.attributes.*)

.debug
 *(.debug)

.line
 *(.line)

.debug_srcinfo
 *(.debug_srcinfo)

.debug_sfnames
 *(.debug_sfnames)

.debug_aranges
 *(.debug_aranges)

.debug_pubnames
 *(.debug_pubnames)

.debug_info
 *(.debug_info .gnu.linkonce.wi.*)

.debug_abbrev
 *(.debug_abbrev)

.debug_line
 *(.debug_line .debug_line.* .debug_line_end)

.debug_frame
 *(.debug_frame)

.debug_str
 *(.debug_str)

.debug_loc
 *(.debug_loc)

.debug_macinfo
 *(.debug_macinfo)

.debug_weaknames
 *(.debug_weaknames)

.debug_funcnames
 *(.debug_funcnames)

.debug_typenames
 *(.debug_typenames)

.debug_varnames
 *(.debug_varnames)

.debug_pubtypes
 *(.debug_pubtypes)

.debug_ranges
 *(.debug_ranges)

.debug_macro
 *(.debug_macro)

.debug_addr
 *(.debug_addr)

.ARM.attributes
 *(.ARM.attributes)
 *(.gnu.attributes)

.note.gnu.arm.ident
 *(.note.gnu.arm.ident)

/DISCARD/
 *(.note.GNU-stack)
 *(.gnu_debuglink)
 *(.gnu.lto_*)
OUTPUT(build/arm11-gcc-uClibc-linux-gk7605v100/lib/libapp_update.so elf64-littleaarch64)
LOAD linker stubs
