
Allocating common symbols
Common symbol       size              file

g_callback_list     0x10              build/arm11-gcc-uClibc-linux-gk7605v100/obj/src/http_main.o
thread_run          0x8               build/arm11-gcc-uClibc-linux-gk7605v100/obj/src/http_main.o
g_hpb_mgr           0x70              build/arm11-gcc-uClibc-linux-gk7605v100/obj/src/http_main.o

Discarded input sections

 .note.GNU-stack
                0x0000000000000000        0x0 /opt/linux/x86-arm/aarch64-mix210-linux/host_bin/../target/usr/lib/crti.o
 .note.GNU-stack
                0x0000000000000000        0x0 /opt/linux/x86-arm/aarch64-mix210-linux/host_bin/../lib/gcc/aarch64-linux-gnu/7.3.0/crtbeginS.o
 .note.GNU-stack
                0x0000000000000000        0x0 build/arm11-gcc-uClibc-linux-gk7605v100/obj/src/http_class.o
 .note.GNU-stack
                0x0000000000000000        0x0 build/arm11-gcc-uClibc-linux-gk7605v100/obj/src/http_const.o
 .note.GNU-stack
                0x0000000000000000        0x0 build/arm11-gcc-uClibc-linux-gk7605v100/obj/src/http_decode.o
 .note.GNU-stack
                0x0000000000000000        0x0 build/arm11-gcc-uClibc-linux-gk7605v100/obj/src/http_encode.o
 .note.GNU-stack
                0x0000000000000000        0x0 build/arm11-gcc-uClibc-linux-gk7605v100/obj/src/http_list.o
 .note.GNU-stack
                0x0000000000000000        0x0 build/arm11-gcc-uClibc-linux-gk7605v100/obj/src/http_llist.o
 .note.GNU-stack
                0x0000000000000000        0x0 build/arm11-gcc-uClibc-linux-gk7605v100/obj/src/http_main.o
 .note.GNU-stack
                0x0000000000000000        0x0 build/arm11-gcc-uClibc-linux-gk7605v100/obj/src/http_process_thread.o
 .note.GNU-stack
                0x0000000000000000        0x0 build/arm11-gcc-uClibc-linux-gk7605v100/obj/src/http_read_thread.o
 .note.GNU-stack
                0x0000000000000000        0x0 build/arm11-gcc-uClibc-linux-gk7605v100/obj/src/http_write_thread.o
 .note.GNU-stack
                0x0000000000000000        0x0 build/arm11-gcc-uClibc-linux-gk7605v100/obj/src/http_compress.o
 .note.GNU-stack
                0x0000000000000000        0x0 build/arm11-gcc-uClibc-linux-gk7605v100/obj/src/static_memory_pool.o
 .note.GNU-stack
                0x0000000000000000        0x0 build/arm11-gcc-uClibc-linux-gk7605v100/obj/src/entry_queue.o
 .note.GNU-stack
                0x0000000000000000        0x0 build/arm11-gcc-uClibc-linux-gk7605v100/obj/src/lf_thread_pool.o
 .note.GNU-stack
                0x0000000000000000        0x0 build/arm11-gcc-uClibc-linux-gk7605v100/obj/src/http_utils.o
 .note.GNU-stack
                0x0000000000000000        0x0 /opt/linux/x86-arm/aarch64-mix210-linux/host_bin/../lib/gcc/aarch64-linux-gnu/7.3.0/crtendS.o
 .note.GNU-stack
                0x0000000000000000        0x0 /opt/linux/x86-arm/aarch64-mix210-linux/host_bin/../target/usr/lib/crtn.o

Memory Configuration

Name             Origin             Length             Attributes
*default*        0x0000000000000000 0xffffffffffffffff

Linker script and memory map

LOAD /opt/linux/x86-arm/aarch64-mix210-linux/host_bin/../target/usr/lib/crti.o
LOAD /opt/linux/x86-arm/aarch64-mix210-linux/host_bin/../lib/gcc/aarch64-linux-gnu/7.3.0/crtbeginS.o
LOAD build/arm11-gcc-uClibc-linux-gk7605v100/obj/src/http_class.o
LOAD build/arm11-gcc-uClibc-linux-gk7605v100/obj/src/http_const.o
LOAD build/arm11-gcc-uClibc-linux-gk7605v100/obj/src/http_decode.o
LOAD build/arm11-gcc-uClibc-linux-gk7605v100/obj/src/http_encode.o
LOAD build/arm11-gcc-uClibc-linux-gk7605v100/obj/src/http_list.o
LOAD build/arm11-gcc-uClibc-linux-gk7605v100/obj/src/http_llist.o
LOAD build/arm11-gcc-uClibc-linux-gk7605v100/obj/src/http_main.o
LOAD build/arm11-gcc-uClibc-linux-gk7605v100/obj/src/http_process_thread.o
LOAD build/arm11-gcc-uClibc-linux-gk7605v100/obj/src/http_read_thread.o
LOAD build/arm11-gcc-uClibc-linux-gk7605v100/obj/src/http_write_thread.o
LOAD build/arm11-gcc-uClibc-linux-gk7605v100/obj/src/http_compress.o
LOAD build/arm11-gcc-uClibc-linux-gk7605v100/obj/src/static_memory_pool.o
LOAD build/arm11-gcc-uClibc-linux-gk7605v100/obj/src/entry_queue.o
LOAD build/arm11-gcc-uClibc-linux-gk7605v100/obj/src/lf_thread_pool.o
LOAD build/arm11-gcc-uClibc-linux-gk7605v100/obj/src/http_utils.o
LOAD /opt/linux/x86-arm/aarch64-mix210-linux/host_bin/../lib/gcc/aarch64-linux-gnu/7.3.0/libgcc.a
LOAD /opt/linux/x86-arm/aarch64-mix210-linux/host_bin/../lib/gcc/aarch64-linux-gnu/7.3.0/../../../../aarch64-linux-gnu/lib/../lib64/libgcc_s.so
LOAD /opt/linux/x86-arm/aarch64-mix210-linux/host_bin/../target/usr/lib/libc.so
START GROUP
LOAD /opt/linux/x86-arm/aarch64-mix210-linux/host_bin/../target/lib/libc.so.6
LOAD /opt/linux/x86-arm/aarch64-mix210-linux/host_bin/../target/usr/lib/libc_nonshared.a
LOAD /opt/linux/x86-arm/aarch64-mix210-linux/host_bin/../target/lib/ld-linux-aarch64.so.1
END GROUP
LOAD /opt/linux/x86-arm/aarch64-mix210-linux/host_bin/../lib/gcc/aarch64-linux-gnu/7.3.0/libgcc.a
LOAD /opt/linux/x86-arm/aarch64-mix210-linux/host_bin/../lib/gcc/aarch64-linux-gnu/7.3.0/../../../../aarch64-linux-gnu/lib/../lib64/libgcc_s.so
LOAD /opt/linux/x86-arm/aarch64-mix210-linux/host_bin/../lib/gcc/aarch64-linux-gnu/7.3.0/crtendS.o
LOAD /opt/linux/x86-arm/aarch64-mix210-linux/host_bin/../target/usr/lib/crtn.o
                0x0000000000000190                . = (SEGMENT_START ("text-segment", 0x0) + SIZEOF_HEADERS)

.note.gnu.build-id
 *(.note.gnu.build-id)

.hash           0x0000000000000190      0x430
 *(.hash)
 .hash          0x0000000000000190      0x430 /opt/linux/x86-arm/aarch64-mix210-linux/host_bin/../target/usr/lib/crti.o

.gnu.hash       0x00000000000005c0      0x270
 *(.gnu.hash)
 .gnu.hash      0x00000000000005c0      0x270 /opt/linux/x86-arm/aarch64-mix210-linux/host_bin/../target/usr/lib/crti.o

.dynsym         0x0000000000000830      0xca8
 *(.dynsym)
 .dynsym        0x0000000000000830      0xca8 /opt/linux/x86-arm/aarch64-mix210-linux/host_bin/../target/usr/lib/crti.o

.dynstr         0x00000000000014d8      0x6eb
 *(.dynstr)
 .dynstr        0x00000000000014d8      0x6eb /opt/linux/x86-arm/aarch64-mix210-linux/host_bin/../target/usr/lib/crti.o

.gnu.version    0x0000000000001bc4      0x10e
 *(.gnu.version)
 .gnu.version   0x0000000000001bc4      0x10e /opt/linux/x86-arm/aarch64-mix210-linux/host_bin/../target/usr/lib/crti.o

.gnu.version_d  0x0000000000001cd8        0x0
 *(.gnu.version_d)
 .gnu.version_d
                0x0000000000001cd8        0x0 /opt/linux/x86-arm/aarch64-mix210-linux/host_bin/../target/usr/lib/crti.o

.gnu.version_r  0x0000000000001cd8       0x20
 *(.gnu.version_r)
 .gnu.version_r
                0x0000000000001cd8       0x20 /opt/linux/x86-arm/aarch64-mix210-linux/host_bin/../target/usr/lib/crti.o

.rela.dyn       0x0000000000001cf8     0x4680
 *(.rela.init)
 *(.rela.text .rela.text.* .rela.gnu.linkonce.t.*)
 *(.rela.fini)
 *(.rela.rodata .rela.rodata.* .rela.gnu.linkonce.r.*)
 *(.rela.data .rela.data.* .rela.gnu.linkonce.d.*)
 .rela.data.rel.local
                0x0000000000001cf8     0x4200 /opt/linux/x86-arm/aarch64-mix210-linux/host_bin/../target/usr/lib/crti.o
 .rela.data.rel.ro.local
                0x0000000000005ef8      0x2e8 /opt/linux/x86-arm/aarch64-mix210-linux/host_bin/../target/usr/lib/crti.o
 *(.rela.tdata .rela.tdata.* .rela.gnu.linkonce.td.*)
 *(.rela.tbss .rela.tbss.* .rela.gnu.linkonce.tb.*)
 *(.rela.ctors)
 *(.rela.dtors)
 *(.rela.got)
 .rela.got      0x00000000000061e0      0x168 /opt/linux/x86-arm/aarch64-mix210-linux/host_bin/../target/usr/lib/crti.o
 *(.rela.bss .rela.bss.* .rela.gnu.linkonce.b.*)
 *(.rela.ifunc)
 .rela.ifunc    0x0000000000006348        0x0 /opt/linux/x86-arm/aarch64-mix210-linux/host_bin/../target/usr/lib/crti.o
 .rela.init_array
                0x0000000000006348       0x18 /opt/linux/x86-arm/aarch64-mix210-linux/host_bin/../target/usr/lib/crti.o
 .rela.fini_array
                0x0000000000006360       0x18 /opt/linux/x86-arm/aarch64-mix210-linux/host_bin/../target/usr/lib/crti.o

.rela.plt       0x0000000000006378      0xa38
 *(.rela.plt)
 .rela.plt      0x0000000000006378      0xa38 /opt/linux/x86-arm/aarch64-mix210-linux/host_bin/../target/usr/lib/crti.o
 *(.rela.iplt)

.init           0x0000000000006db0       0x14
 *(SORT_NONE(.init))
 .init          0x0000000000006db0        0xc /opt/linux/x86-arm/aarch64-mix210-linux/host_bin/../target/usr/lib/crti.o
                0x0000000000006db0                _init
 .init          0x0000000000006dbc        0x8 /opt/linux/x86-arm/aarch64-mix210-linux/host_bin/../target/usr/lib/crtn.o

.plt            0x0000000000006dd0      0x6f0
 *(.plt)
 .plt           0x0000000000006dd0      0x6f0 /opt/linux/x86-arm/aarch64-mix210-linux/host_bin/../target/usr/lib/crti.o
 *(.iplt)

.text           0x00000000000074c0     0x74ac
 *(.text.unlikely .text.*_unlikely .text.unlikely.*)
 *(.text.exit .text.exit.*)
 *(.text.startup .text.startup.*)
 *(.text.hot .text.hot.*)
 *(SORT_BY_NAME(.text.sorted.*))
 *(.text .stub .text.* .gnu.linkonce.t.*)
 .text          0x00000000000074c0       0x14 /opt/linux/x86-arm/aarch64-mix210-linux/host_bin/../target/usr/lib/crti.o
 *fill*         0x00000000000074d4        0x4 1f2003d5
 .text          0x00000000000074d8       0xbc /opt/linux/x86-arm/aarch64-mix210-linux/host_bin/../lib/gcc/aarch64-linux-gnu/7.3.0/crtbeginS.o
 *fill*         0x0000000000007594        0x4 1f2003d5
 .text          0x0000000000007598     0x1034 build/arm11-gcc-uClibc-linux-gk7605v100/obj/src/http_class.o
                0x0000000000007838                insert_keyof_name
                0x00000000000078d0                insert_keyof_value
                0x00000000000079b8                insert_stname
                0x0000000000007a50                set_request_path_type
                0x0000000000007b10                get_http_tag
                0x0000000000007b38                get_content_length
                0x0000000000007b88                set_http_body
                0x0000000000007c00                add_http_tag
                0x0000000000007d78                add_cache_control
                0x0000000000007e08                add_common_tag
                0x0000000000008030                add_content_len
                0x0000000000008090                print_packet_head
                0x0000000000008098                print_http_parse_result
                0x00000000000080a0                print_respond_tag
                0x00000000000080a8                FREE_HTTP_BASE
                0x00000000000082d8                RESET_HTTP_BASE
                0x0000000000008510                INIT_HTTP_BASE
 *fill*         0x00000000000085cc        0x4 1f2003d5
 .text          0x00000000000085d0      0x140 build/arm11-gcc-uClibc-linux-gk7605v100/obj/src/http_const.o
                0x00000000000085d0                error_code_mapping
 .text          0x0000000000008710     0x2e10 build/arm11-gcc-uClibc-linux-gk7605v100/obj/src/http_decode.o
                0x00000000000089d0                http_message_needs_eof
                0x0000000000008a28                http_should_keep_alive
                0x0000000000008a78                http_parser_execute
                0x000000000000b4e0                http_parser_init
 .text          0x000000000000b520      0x5b4 build/arm11-gcc-uClibc-linux-gk7605v100/obj/src/http_encode.o
                0x000000000000b520                get_http_packet_len
                0x000000000000b608                encoding_body
                0x000000000000b918                http_encode
 *fill*         0x000000000000bad4        0x4 1f2003d5
 .text          0x000000000000bad8       0x80 build/arm11-gcc-uClibc-linux-gk7605v100/obj/src/http_list.o
                0x000000000000bad8                INIT_LIST_HEAD
                0x000000000000bae0                __list_add
                0x000000000000baf0                list_add_tail
                0x000000000000bb08                list_add_head
                0x000000000000bb20                __list_del
                0x000000000000bb30                list_del
                0x000000000000bb48                list_empty
 .text          0x000000000000bb58      0x1cc build/arm11-gcc-uClibc-linux-gk7605v100/obj/src/http_llist.o
                0x000000000000bb58                llist_add_tail
                0x000000000000bbc8                llist_pop_entry
                0x000000000000bc58                init_llist
                0x000000000000bd00                destroy_llist
 *fill*         0x000000000000bd24        0x4 1f2003d5
 .text          0x000000000000bd28      0xb10 build/arm11-gcc-uClibc-linux-gk7605v100/obj/src/http_main.o
                0x000000000000c010                time_wait
                0x000000000000c1a8                http_mini_server_run
                0x000000000000c238                http_mini_server_init
                0x000000000000c528                http_mini_add_cgi_callback
                0x000000000000c648                http_mini_add_read_callback
                0x000000000000c708                http_mini_server_exit
 .text          0x000000000000c838      0x790 build/arm11-gcc-uClibc-linux-gk7605v100/obj/src/http_process_thread.o
                0x000000000000cea8                process_data
 .text          0x000000000000cfc8      0x830 build/arm11-gcc-uClibc-linux-gk7605v100/obj/src/http_read_thread.o
                0x000000000000d318                read_data
                0x000000000000d5b8                fill_fdset
                0x000000000000d718                handle_read_i
 .text          0x000000000000d7f8      0x54c build/arm11-gcc-uClibc-linux-gk7605v100/obj/src/http_write_thread.o
                0x000000000000da90                write_data
 *fill*         0x000000000000dd44        0x4 1f2003d5
 .text          0x000000000000dd48      0x3c0 build/arm11-gcc-uClibc-linux-gk7605v100/obj/src/http_compress.o
                0x000000000000dd48                deflate_gzip
                0x000000000000df18                deflate_deflate
                0x000000000000e010                inflate_gzip
 .text          0x000000000000e108      0x144 build/arm11-gcc-uClibc-linux-gk7605v100/obj/src/static_memory_pool.o
                0x000000000000e108                mem_allocate
                0x000000000000e138                mem_deallocate
                0x000000000000e150                create_static_mem_pool
                0x000000000000e220                free_static_mem_pool
 .text          0x000000000000e24c        0x0 build/arm11-gcc-uClibc-linux-gk7605v100/obj/src/entry_queue.o
 *fill*         0x000000000000e24c        0x4 1f2003d5
 .text          0x000000000000e250      0x5a4 build/arm11-gcc-uClibc-linux-gk7605v100/obj/src/lf_thread_pool.o
                0x000000000000e4a0                lf_thread_pool_creat
                0x000000000000e710                lf_thread_pool_free
                0x000000000000e788                push_entry_in_pool
 *fill*         0x000000000000e7f4        0x4 1f2003d5
 .text          0x000000000000e7f8      0x174 build/arm11-gcc-uClibc-linux-gk7605v100/obj/src/http_utils.o
                0x000000000000e7f8                str_tolower
                0x000000000000e848                http_space_to_sys_space
                0x000000000000e8e8                dump_chunk
 .text          0x000000000000e96c        0x0 /opt/linux/x86-arm/aarch64-mix210-linux/host_bin/../lib/gcc/aarch64-linux-gnu/7.3.0/crtendS.o
 .text          0x000000000000e96c        0x0 /opt/linux/x86-arm/aarch64-mix210-linux/host_bin/../target/usr/lib/crtn.o
 *(.gnu.warning)

.fini           0x000000000000e96c       0x10
 *(SORT_NONE(.fini))
 .fini          0x000000000000e96c        0x8 /opt/linux/x86-arm/aarch64-mix210-linux/host_bin/../target/usr/lib/crti.o
                0x000000000000e96c                _fini
 .fini          0x000000000000e974        0x8 /opt/linux/x86-arm/aarch64-mix210-linux/host_bin/../target/usr/lib/crtn.o
                [!provide]                        PROVIDE (__etext = .)
                [!provide]                        PROVIDE (_etext = .)
                [!provide]                        PROVIDE (etext = .)

.rodata         0x000000000000e980     0x3b63
 *(.rodata .rodata.* .gnu.linkonce.r.*)
 .rodata.str1.8
                0x000000000000e980      0x10f build/arm11-gcc-uClibc-linux-gk7605v100/obj/src/http_class.o
                                        0x113 (size before relaxing)
 *fill*         0x000000000000ea8f        0x1 
 .rodata.str1.8
                0x000000000000ea90     0x24f7 build/arm11-gcc-uClibc-linux-gk7605v100/obj/src/http_const.o
 *fill*         0x0000000000010f87        0x1 
 .rodata        0x0000000000010f88      0x2c0 build/arm11-gcc-uClibc-linux-gk7605v100/obj/src/http_decode.o
 .rodata.str1.8
                0x0000000000011248      0x34b build/arm11-gcc-uClibc-linux-gk7605v100/obj/src/http_decode.o
                                        0x353 (size before relaxing)
 *fill*         0x0000000000011593        0x5 
 .rodata.str1.8
                0x0000000000011598      0x194 build/arm11-gcc-uClibc-linux-gk7605v100/obj/src/http_encode.o
 *fill*         0x000000000001172c        0x4 
 .rodata.str1.8
                0x0000000000011730       0x6c build/arm11-gcc-uClibc-linux-gk7605v100/obj/src/http_llist.o
 *fill*         0x000000000001179c        0x4 
 .rodata.str1.8
                0x00000000000117a0      0x503 build/arm11-gcc-uClibc-linux-gk7605v100/obj/src/http_main.o
 *fill*         0x0000000000011ca3        0x5 
 .rodata.str1.8
                0x0000000000011ca8      0x250 build/arm11-gcc-uClibc-linux-gk7605v100/obj/src/http_process_thread.o
                                        0x268 (size before relaxing)
 .rodata.str1.8
                0x0000000000011ef8      0x184 build/arm11-gcc-uClibc-linux-gk7605v100/obj/src/http_read_thread.o
 *fill*         0x000000000001207c        0x4 
 .rodata.str1.8
                0x0000000000012080      0x1a8 build/arm11-gcc-uClibc-linux-gk7605v100/obj/src/http_write_thread.o
 .rodata.str1.8
                0x0000000000012228        0x6 build/arm11-gcc-uClibc-linux-gk7605v100/obj/src/http_compress.o
 *fill*         0x000000000001222e        0x2 
 .rodata        0x0000000000012230        0xe build/arm11-gcc-uClibc-linux-gk7605v100/obj/src/lf_thread_pool.o
 *fill*         0x000000000001223e        0x2 
 .rodata.str1.8
                0x0000000000012240      0x280 build/arm11-gcc-uClibc-linux-gk7605v100/obj/src/lf_thread_pool.o
 .rodata.str1.8
                0x00000000000124c0       0x23 build/arm11-gcc-uClibc-linux-gk7605v100/obj/src/http_utils.o

.rodata1
 *(.rodata1)

.eh_frame_hdr   0x00000000000124e4      0x2ec
 *(.eh_frame_hdr)
 .eh_frame_hdr  0x00000000000124e4      0x2ec /opt/linux/x86-arm/aarch64-mix210-linux/host_bin/../lib/gcc/aarch64-linux-gnu/7.3.0/crtbeginS.o
                0x00000000000124e4                __GNU_EH_FRAME_HDR
 *(.eh_frame_entry .eh_frame_entry.*)

.eh_frame       0x00000000000127d0     0x15d0
 *(.eh_frame)
 .eh_frame      0x00000000000127d0       0x78 /opt/linux/x86-arm/aarch64-mix210-linux/host_bin/../lib/gcc/aarch64-linux-gnu/7.3.0/crtbeginS.o
 .eh_frame      0x0000000000012848      0x618 build/arm11-gcc-uClibc-linux-gk7605v100/obj/src/http_class.o
                                        0x630 (size before relaxing)
 .eh_frame      0x0000000000012e60       0x28 build/arm11-gcc-uClibc-linux-gk7605v100/obj/src/http_const.o
                                         0x40 (size before relaxing)
 .eh_frame      0x0000000000012e88      0x190 build/arm11-gcc-uClibc-linux-gk7605v100/obj/src/http_decode.o
                                        0x1a0 (size before relaxing)
 .eh_frame      0x0000000000013018      0x168 build/arm11-gcc-uClibc-linux-gk7605v100/obj/src/http_encode.o
                                        0x178 (size before relaxing)
 .eh_frame      0x0000000000013180       0x90 build/arm11-gcc-uClibc-linux-gk7605v100/obj/src/http_list.o
                                         0xa0 (size before relaxing)
 .eh_frame      0x0000000000013210       0xc0 build/arm11-gcc-uClibc-linux-gk7605v100/obj/src/http_llist.o
                                         0xd0 (size before relaxing)
 .eh_frame      0x00000000000132d0      0x2b8 build/arm11-gcc-uClibc-linux-gk7605v100/obj/src/http_main.o
                                        0x2c8 (size before relaxing)
 .eh_frame      0x0000000000013588      0x160 build/arm11-gcc-uClibc-linux-gk7605v100/obj/src/http_process_thread.o
                                        0x170 (size before relaxing)
 .eh_frame      0x00000000000136e8      0x280 build/arm11-gcc-uClibc-linux-gk7605v100/obj/src/http_read_thread.o
                                        0x290 (size before relaxing)
 .eh_frame      0x0000000000013968      0x128 build/arm11-gcc-uClibc-linux-gk7605v100/obj/src/http_write_thread.o
                                        0x140 (size before relaxing)
 .eh_frame      0x0000000000013a90       0xe8 build/arm11-gcc-uClibc-linux-gk7605v100/obj/src/http_compress.o
                                        0x100 (size before relaxing)
 .eh_frame      0x0000000000013b78       0x90 build/arm11-gcc-uClibc-linux-gk7605v100/obj/src/static_memory_pool.o
                                         0xa0 (size before relaxing)
 .eh_frame      0x0000000000013c08      0x118 build/arm11-gcc-uClibc-linux-gk7605v100/obj/src/lf_thread_pool.o
                                        0x130 (size before relaxing)
 .eh_frame      0x0000000000013d20       0x7c build/arm11-gcc-uClibc-linux-gk7605v100/obj/src/http_utils.o
                                         0x90 (size before relaxing)
 .eh_frame      0x0000000000013d9c        0x4 /opt/linux/x86-arm/aarch64-mix210-linux/host_bin/../lib/gcc/aarch64-linux-gnu/7.3.0/crtendS.o
 *(.eh_frame.*)

.gcc_except_table
 *(.gcc_except_table .gcc_except_table.*)

.gnu_extab
 *(.gnu_extab*)

.exception_ranges
 *(.exception_ranges*)
                0x0000000000024c90                . = DATA_SEGMENT_ALIGN (CONSTANT (MAXPAGESIZE), CONSTANT (COMMONPAGESIZE))

.eh_frame
 *(.eh_frame)
 *(.eh_frame.*)

.gnu_extab
 *(.gnu_extab)

.gcc_except_table
 *(.gcc_except_table .gcc_except_table.*)

.exception_ranges
 *(.exception_ranges*)

.tdata
 *(.tdata .tdata.* .gnu.linkonce.td.*)

.tbss
 *(.tbss .tbss.* .gnu.linkonce.tb.*)
 *(.tcommon)

.preinit_array
 *(.preinit_array)

.init_array     0x0000000000024c90        0x8
 *(SORT_BY_INIT_PRIORITY(.init_array.*) SORT_BY_INIT_PRIORITY(.ctors.*))
 *(.init_array EXCLUDE_FILE(*crtend?.o *crtend.o *crtbegin?.o *crtbegin.o) .ctors)
 .init_array    0x0000000000024c90        0x8 /opt/linux/x86-arm/aarch64-mix210-linux/host_bin/../lib/gcc/aarch64-linux-gnu/7.3.0/crtbeginS.o

.fini_array     0x0000000000024c98        0x8
 *(SORT_BY_INIT_PRIORITY(.fini_array.*) SORT_BY_INIT_PRIORITY(.dtors.*))
 *(.fini_array EXCLUDE_FILE(*crtend?.o *crtend.o *crtbegin?.o *crtbegin.o) .dtors)
 .fini_array    0x0000000000024c98        0x8 /opt/linux/x86-arm/aarch64-mix210-linux/host_bin/../lib/gcc/aarch64-linux-gnu/7.3.0/crtbeginS.o

.ctors
 *crtbegin.o(.ctors)
 *crtbegin?.o(.ctors)
 *(EXCLUDE_FILE(*crtend?.o *crtend.o) .ctors)
 *(SORT_BY_NAME(.ctors.*))
 *(.ctors)

.dtors
 *crtbegin.o(.dtors)
 *crtbegin?.o(.dtors)
 *(EXCLUDE_FILE(*crtend?.o *crtend.o) .dtors)
 *(SORT_BY_NAME(.dtors.*))
 *(.dtors)

.jcr
 *(.jcr)

.data.rel.ro    0x0000000000024ca0       0xf8
 *(.data.rel.ro.local* .gnu.linkonce.d.rel.ro.local.*)
 .data.rel.ro.local
                0x0000000000024ca0       0xf8 build/arm11-gcc-uClibc-linux-gk7605v100/obj/src/http_decode.o
 *(.data.rel.ro .data.rel.ro.* .gnu.linkonce.d.rel.ro.*)
 .data.rel.ro   0x0000000000024d98        0x0 /opt/linux/x86-arm/aarch64-mix210-linux/host_bin/../target/usr/lib/crti.o

.dynamic        0x0000000000024d98      0x1d0
 *(.dynamic)
 .dynamic       0x0000000000024d98      0x1d0 /opt/linux/x86-arm/aarch64-mix210-linux/host_bin/../target/usr/lib/crti.o
                0x0000000000024d98                _DYNAMIC

.got            0x0000000000024f68       0x80
 *(.got)
 .got           0x0000000000024f68       0x80 /opt/linux/x86-arm/aarch64-mix210-linux/host_bin/../target/usr/lib/crti.o
                0x0000000000024f68                _GLOBAL_OFFSET_TABLE_
 *(.igot)
                0x0000000000024fe8                . = DATA_SEGMENT_RELRO_END (., 0x18)

.got.plt        0x0000000000024fe8      0x380
 *(.got.plt)
 .got.plt       0x0000000000024fe8      0x380 /opt/linux/x86-arm/aarch64-mix210-linux/host_bin/../target/usr/lib/crti.o
 *(.igot.plt)

.data           0x0000000000025368     0x1608
                [!provide]                        PROVIDE (__data_start = .)
 *(.data .data.* .gnu.linkonce.d.*)
 .data          0x0000000000025368        0x0 /opt/linux/x86-arm/aarch64-mix210-linux/host_bin/../target/usr/lib/crti.o
 .data          0x0000000000025368        0x0 /opt/linux/x86-arm/aarch64-mix210-linux/host_bin/../lib/gcc/aarch64-linux-gnu/7.3.0/crtbeginS.o
 .data.rel.local
                0x0000000000025368        0x8 /opt/linux/x86-arm/aarch64-mix210-linux/host_bin/../lib/gcc/aarch64-linux-gnu/7.3.0/crtbeginS.o
                0x0000000000025368                __dso_handle
 .data          0x0000000000025370        0x0 build/arm11-gcc-uClibc-linux-gk7605v100/obj/src/http_class.o
 .data          0x0000000000025370        0x0 build/arm11-gcc-uClibc-linux-gk7605v100/obj/src/http_const.o
 .data.rel.local
                0x0000000000025370     0x1600 build/arm11-gcc-uClibc-linux-gk7605v100/obj/src/http_const.o
                0x0000000000025370                content_type
                0x0000000000025dd0                file_suffix
                0x0000000000026848                http_error
 .data          0x0000000000026970        0x0 build/arm11-gcc-uClibc-linux-gk7605v100/obj/src/http_decode.o
 .data          0x0000000000026970        0x0 build/arm11-gcc-uClibc-linux-gk7605v100/obj/src/http_encode.o
 .data          0x0000000000026970        0x0 build/arm11-gcc-uClibc-linux-gk7605v100/obj/src/http_list.o
 .data          0x0000000000026970        0x0 build/arm11-gcc-uClibc-linux-gk7605v100/obj/src/http_llist.o
 .data          0x0000000000026970        0x0 build/arm11-gcc-uClibc-linux-gk7605v100/obj/src/http_main.o
 .data          0x0000000000026970        0x0 build/arm11-gcc-uClibc-linux-gk7605v100/obj/src/http_process_thread.o
 .data          0x0000000000026970        0x0 build/arm11-gcc-uClibc-linux-gk7605v100/obj/src/http_read_thread.o
 .data          0x0000000000026970        0x0 build/arm11-gcc-uClibc-linux-gk7605v100/obj/src/http_write_thread.o
 .data          0x0000000000026970        0x0 build/arm11-gcc-uClibc-linux-gk7605v100/obj/src/http_compress.o
 .data          0x0000000000026970        0x0 build/arm11-gcc-uClibc-linux-gk7605v100/obj/src/static_memory_pool.o
 .data          0x0000000000026970        0x0 build/arm11-gcc-uClibc-linux-gk7605v100/obj/src/entry_queue.o
 .data          0x0000000000026970        0x0 build/arm11-gcc-uClibc-linux-gk7605v100/obj/src/lf_thread_pool.o
 .data          0x0000000000026970        0x0 build/arm11-gcc-uClibc-linux-gk7605v100/obj/src/http_utils.o
 .data          0x0000000000026970        0x0 /opt/linux/x86-arm/aarch64-mix210-linux/host_bin/../lib/gcc/aarch64-linux-gnu/7.3.0/crtendS.o
 .data          0x0000000000026970        0x0 /opt/linux/x86-arm/aarch64-mix210-linux/host_bin/../target/usr/lib/crtn.o

.tm_clone_table
                0x0000000000026970        0x0
 .tm_clone_table
                0x0000000000026970        0x0 /opt/linux/x86-arm/aarch64-mix210-linux/host_bin/../lib/gcc/aarch64-linux-gnu/7.3.0/crtbeginS.o
 .tm_clone_table
                0x0000000000026970        0x0 /opt/linux/x86-arm/aarch64-mix210-linux/host_bin/../lib/gcc/aarch64-linux-gnu/7.3.0/crtendS.o

.data1
 *(.data1)
                [!provide]                        PROVIDE (_edata = .)
                [!provide]                        PROVIDE (edata = .)
                0x0000000000026970                . = .
                [!provide]                        PROVIDE (__bss_start = .)
                [!provide]                        PROVIDE (__bss_start__ = .)

.bss            0x0000000000026970       0xb0
 *(.dynbss)
 .dynbss        0x0000000000026970        0x0 /opt/linux/x86-arm/aarch64-mix210-linux/host_bin/../target/usr/lib/crti.o
 *(.bss .bss.* .gnu.linkonce.b.*)
 .bss           0x0000000000026970        0x0 /opt/linux/x86-arm/aarch64-mix210-linux/host_bin/../target/usr/lib/crti.o
 .bss           0x0000000000026970        0x1 /opt/linux/x86-arm/aarch64-mix210-linux/host_bin/../lib/gcc/aarch64-linux-gnu/7.3.0/crtbeginS.o
 .bss           0x0000000000026971        0x0 build/arm11-gcc-uClibc-linux-gk7605v100/obj/src/http_class.o
 .bss           0x0000000000026971        0x0 build/arm11-gcc-uClibc-linux-gk7605v100/obj/src/http_const.o
 .bss           0x0000000000026971        0x0 build/arm11-gcc-uClibc-linux-gk7605v100/obj/src/http_decode.o
 .bss           0x0000000000026971        0x0 build/arm11-gcc-uClibc-linux-gk7605v100/obj/src/http_encode.o
 .bss           0x0000000000026971        0x0 build/arm11-gcc-uClibc-linux-gk7605v100/obj/src/http_list.o
 .bss           0x0000000000026971        0x0 build/arm11-gcc-uClibc-linux-gk7605v100/obj/src/http_llist.o
 *fill*         0x0000000000026971        0x7 
 .bss           0x0000000000026978       0x20 build/arm11-gcc-uClibc-linux-gk7605v100/obj/src/http_main.o
                0x0000000000026980                g_read_thrpool
                0x0000000000026988                _http_server_init
                0x0000000000026990                http_server_path
 .bss           0x0000000000026998        0x0 build/arm11-gcc-uClibc-linux-gk7605v100/obj/src/http_process_thread.o
 .bss           0x0000000000026998        0x0 build/arm11-gcc-uClibc-linux-gk7605v100/obj/src/http_read_thread.o
 .bss           0x0000000000026998        0x0 build/arm11-gcc-uClibc-linux-gk7605v100/obj/src/http_write_thread.o
 .bss           0x0000000000026998        0x0 build/arm11-gcc-uClibc-linux-gk7605v100/obj/src/http_compress.o
 .bss           0x0000000000026998        0x0 build/arm11-gcc-uClibc-linux-gk7605v100/obj/src/static_memory_pool.o
 .bss           0x0000000000026998        0x0 build/arm11-gcc-uClibc-linux-gk7605v100/obj/src/entry_queue.o
 .bss           0x0000000000026998        0x0 build/arm11-gcc-uClibc-linux-gk7605v100/obj/src/lf_thread_pool.o
 .bss           0x0000000000026998        0x0 build/arm11-gcc-uClibc-linux-gk7605v100/obj/src/http_utils.o
 .bss           0x0000000000026998        0x0 /opt/linux/x86-arm/aarch64-mix210-linux/host_bin/../lib/gcc/aarch64-linux-gnu/7.3.0/crtendS.o
 .bss           0x0000000000026998        0x0 /opt/linux/x86-arm/aarch64-mix210-linux/host_bin/../target/usr/lib/crtn.o
 *(COMMON)
 COMMON         0x0000000000026998       0x88 build/arm11-gcc-uClibc-linux-gk7605v100/obj/src/http_main.o
                0x0000000000026998                g_callback_list
                0x00000000000269a8                thread_run
                0x00000000000269b0                g_hpb_mgr
                0x0000000000026a20                . = ALIGN ((. != 0x0)?0x8:0x1)
                [!provide]                        PROVIDE (_bss_end__ = .)
                [!provide]                        PROVIDE (__bss_end__ = .)
                0x0000000000026a20                . = ALIGN (0x8)
                0x0000000000026a20                . = SEGMENT_START ("ldata-segment", .)
                0x0000000000026a20                . = ALIGN (0x8)
                [!provide]                        PROVIDE (__end__ = .)
                [!provide]                        PROVIDE (_end = .)
                [!provide]                        PROVIDE (end = .)
                0x0000000000026a20                . = DATA_SEGMENT_END (.)

.stab
 *(.stab)

.stabstr
 *(.stabstr)

.stab.excl
 *(.stab.excl)

.stab.exclstr
 *(.stab.exclstr)

.stab.index
 *(.stab.index)

.stab.indexstr
 *(.stab.indexstr)

.comment        0x0000000000000000       0x16
 *(.comment)
 .comment       0x0000000000000000       0x16 /opt/linux/x86-arm/aarch64-mix210-linux/host_bin/../lib/gcc/aarch64-linux-gnu/7.3.0/crtbeginS.o
                                         0x17 (size before relaxing)
 .comment       0x0000000000000016       0x17 build/arm11-gcc-uClibc-linux-gk7605v100/obj/src/http_class.o
 .comment       0x0000000000000016       0x17 build/arm11-gcc-uClibc-linux-gk7605v100/obj/src/http_const.o
 .comment       0x0000000000000016       0x17 build/arm11-gcc-uClibc-linux-gk7605v100/obj/src/http_decode.o
 .comment       0x0000000000000016       0x17 build/arm11-gcc-uClibc-linux-gk7605v100/obj/src/http_encode.o
 .comment       0x0000000000000016       0x17 build/arm11-gcc-uClibc-linux-gk7605v100/obj/src/http_list.o
 .comment       0x0000000000000016       0x17 build/arm11-gcc-uClibc-linux-gk7605v100/obj/src/http_llist.o
 .comment       0x0000000000000016       0x17 build/arm11-gcc-uClibc-linux-gk7605v100/obj/src/http_main.o
 .comment       0x0000000000000016       0x17 build/arm11-gcc-uClibc-linux-gk7605v100/obj/src/http_process_thread.o
 .comment       0x0000000000000016       0x17 build/arm11-gcc-uClibc-linux-gk7605v100/obj/src/http_read_thread.o
 .comment       0x0000000000000016       0x17 build/arm11-gcc-uClibc-linux-gk7605v100/obj/src/http_write_thread.o
 .comment       0x0000000000000016       0x17 build/arm11-gcc-uClibc-linux-gk7605v100/obj/src/http_compress.o
 .comment       0x0000000000000016       0x17 build/arm11-gcc-uClibc-linux-gk7605v100/obj/src/static_memory_pool.o
 .comment       0x0000000000000016       0x17 build/arm11-gcc-uClibc-linux-gk7605v100/obj/src/entry_queue.o
 .comment       0x0000000000000016       0x17 build/arm11-gcc-uClibc-linux-gk7605v100/obj/src/lf_thread_pool.o
 .comment       0x0000000000000016       0x17 build/arm11-gcc-uClibc-linux-gk7605v100/obj/src/http_utils.o
 .comment       0x0000000000000016       0x17 /opt/linux/x86-arm/aarch64-mix210-linux/host_bin/../lib/gcc/aarch64-linux-gnu/7.3.0/crtendS.o

.gnu.build.attributes
 *(.gnu.build.attributes .gnu.build.attributes.*)

.debug
 *(.debug)

.line
 *(.line)

.debug_srcinfo
 *(.debug_srcinfo)

.debug_sfnames
 *(.debug_sfnames)

.debug_aranges
 *(.debug_aranges)

.debug_pubnames
 *(.debug_pubnames)

.debug_info
 *(.debug_info .gnu.linkonce.wi.*)

.debug_abbrev
 *(.debug_abbrev)

.debug_line
 *(.debug_line .debug_line.* .debug_line_end)

.debug_frame
 *(.debug_frame)

.debug_str
 *(.debug_str)

.debug_loc
 *(.debug_loc)

.debug_macinfo
 *(.debug_macinfo)

.debug_weaknames
 *(.debug_weaknames)

.debug_funcnames
 *(.debug_funcnames)

.debug_typenames
 *(.debug_typenames)

.debug_varnames
 *(.debug_varnames)

.debug_pubtypes
 *(.debug_pubtypes)

.debug_ranges
 *(.debug_ranges)

.debug_macro
 *(.debug_macro)

.debug_addr
 *(.debug_addr)

.ARM.attributes
 *(.ARM.attributes)
 *(.gnu.attributes)

.note.gnu.arm.ident
 *(.note.gnu.arm.ident)

/DISCARD/
 *(.note.GNU-stack)
 *(.gnu_debuglink)
 *(.gnu.lto_*)
OUTPUT(build/arm11-gcc-uClibc-linux-gk7605v100/lib/libhttpserver.so elf64-littleaarch64)
LOAD linker stubs
