
Discarded input sections

 .note.GNU-stack
                0x0000000000000000        0x0 /opt/linux/x86-arm/aarch64-mix210-linux/host_bin/../target/usr/lib/crti.o
 .note.GNU-stack
                0x0000000000000000        0x0 /opt/linux/x86-arm/aarch64-mix210-linux/host_bin/../lib/gcc/aarch64-linux-gnu/7.3.0/crtbeginS.o
 .note.GNU-stack
                0x0000000000000000        0x0 build/arm11-gcc-uClibc-linux-gk7605v100/obj/avi_utility.o
 .note.GNU-stack
                0x0000000000000000        0x0 build/arm11-gcc-uClibc-linux-gk7605v100/obj/mmc_api.o
 .note.GNU-stack
                0x0000000000000000        0x0 build/arm11-gcc-uClibc-linux-gk7605v100/obj/avi_read_api.o
 .note.GNU-stack
                0x0000000000000000        0x0 build/arm11-gcc-uClibc-linux-gk7605v100/obj/avi_rec.o
 .note.GNU-stack
                0x0000000000000000        0x0 build/arm11-gcc-uClibc-linux-gk7605v100/obj/avi_search_api.o
 .note.GNU-stack
                0x0000000000000000        0x0 build/arm11-gcc-uClibc-linux-gk7605v100/obj/avi_write_api.o
 .note.GNU-stack
                0x0000000000000000        0x0 /opt/linux/x86-arm/aarch64-mix210-linux/host_bin/../lib/gcc/aarch64-linux-gnu/7.3.0/crtendS.o
 .note.GNU-stack
                0x0000000000000000        0x0 /opt/linux/x86-arm/aarch64-mix210-linux/host_bin/../target/usr/lib/crtn.o

Memory Configuration

Name             Origin             Length             Attributes
*default*        0x0000000000000000 0xffffffffffffffff

Linker script and memory map

LOAD /opt/linux/x86-arm/aarch64-mix210-linux/host_bin/../target/usr/lib/crti.o
LOAD /opt/linux/x86-arm/aarch64-mix210-linux/host_bin/../lib/gcc/aarch64-linux-gnu/7.3.0/crtbeginS.o
LOAD build/arm11-gcc-uClibc-linux-gk7605v100/obj/avi_utility.o
LOAD build/arm11-gcc-uClibc-linux-gk7605v100/obj/mmc_api.o
LOAD build/arm11-gcc-uClibc-linux-gk7605v100/obj/avi_read_api.o
LOAD build/arm11-gcc-uClibc-linux-gk7605v100/obj/avi_rec.o
LOAD build/arm11-gcc-uClibc-linux-gk7605v100/obj/avi_search_api.o
LOAD build/arm11-gcc-uClibc-linux-gk7605v100/obj/avi_write_api.o
LOAD /opt/linux/x86-arm/aarch64-mix210-linux/host_bin/../lib/gcc/aarch64-linux-gnu/7.3.0/libgcc.a
LOAD /opt/linux/x86-arm/aarch64-mix210-linux/host_bin/../lib/gcc/aarch64-linux-gnu/7.3.0/../../../../aarch64-linux-gnu/lib/../lib64/libgcc_s.so
LOAD /opt/linux/x86-arm/aarch64-mix210-linux/host_bin/../target/usr/lib/libc.so
START GROUP
LOAD /opt/linux/x86-arm/aarch64-mix210-linux/host_bin/../target/lib/libc.so.6
LOAD /opt/linux/x86-arm/aarch64-mix210-linux/host_bin/../target/usr/lib/libc_nonshared.a
LOAD /opt/linux/x86-arm/aarch64-mix210-linux/host_bin/../target/lib/ld-linux-aarch64.so.1
END GROUP
LOAD /opt/linux/x86-arm/aarch64-mix210-linux/host_bin/../lib/gcc/aarch64-linux-gnu/7.3.0/libgcc.a
LOAD /opt/linux/x86-arm/aarch64-mix210-linux/host_bin/../lib/gcc/aarch64-linux-gnu/7.3.0/../../../../aarch64-linux-gnu/lib/../lib64/libgcc_s.so
LOAD /opt/linux/x86-arm/aarch64-mix210-linux/host_bin/../lib/gcc/aarch64-linux-gnu/7.3.0/crtendS.o
LOAD /opt/linux/x86-arm/aarch64-mix210-linux/host_bin/../target/usr/lib/crtn.o
                0x0000000000000190                . = (SEGMENT_START ("text-segment", 0x0) + SIZEOF_HEADERS)

.note.gnu.build-id
 *(.note.gnu.build-id)

.hash           0x0000000000000190      0x6b4
 *(.hash)
 .hash          0x0000000000000190      0x6b4 /opt/linux/x86-arm/aarch64-mix210-linux/host_bin/../target/usr/lib/crti.o

.gnu.hash       0x0000000000000848      0x4ac
 *(.gnu.hash)
 .gnu.hash      0x0000000000000848      0x4ac /opt/linux/x86-arm/aarch64-mix210-linux/host_bin/../target/usr/lib/crti.o

.dynsym         0x0000000000000cf8     0x1590
 *(.dynsym)
 .dynsym        0x0000000000000cf8     0x1590 /opt/linux/x86-arm/aarch64-mix210-linux/host_bin/../target/usr/lib/crti.o

.dynstr         0x0000000000002288      0xd1f
 *(.dynstr)
 .dynstr        0x0000000000002288      0xd1f /opt/linux/x86-arm/aarch64-mix210-linux/host_bin/../target/usr/lib/crti.o

.gnu.version    0x0000000000002fa8      0x1cc
 *(.gnu.version)
 .gnu.version   0x0000000000002fa8      0x1cc /opt/linux/x86-arm/aarch64-mix210-linux/host_bin/../target/usr/lib/crti.o

.gnu.version_d  0x0000000000003178        0x0
 *(.gnu.version_d)
 .gnu.version_d
                0x0000000000003178        0x0 /opt/linux/x86-arm/aarch64-mix210-linux/host_bin/../target/usr/lib/crti.o

.gnu.version_r  0x0000000000003178       0x20
 *(.gnu.version_r)
 .gnu.version_r
                0x0000000000003178       0x20 /opt/linux/x86-arm/aarch64-mix210-linux/host_bin/../target/usr/lib/crti.o

.rela.dyn       0x0000000000003198      0x2a0
 *(.rela.init)
 *(.rela.text .rela.text.* .rela.gnu.linkonce.t.*)
 *(.rela.fini)
 *(.rela.rodata .rela.rodata.* .rela.gnu.linkonce.r.*)
 *(.rela.data .rela.data.* .rela.gnu.linkonce.d.*)
 .rela.data.rel.local
                0x0000000000003198       0x18 /opt/linux/x86-arm/aarch64-mix210-linux/host_bin/../target/usr/lib/crti.o
 *(.rela.tdata .rela.tdata.* .rela.gnu.linkonce.td.*)
 *(.rela.tbss .rela.tbss.* .rela.gnu.linkonce.tb.*)
 *(.rela.ctors)
 *(.rela.dtors)
 *(.rela.got)
 .rela.got      0x00000000000031b0      0x258 /opt/linux/x86-arm/aarch64-mix210-linux/host_bin/../target/usr/lib/crti.o
 *(.rela.bss .rela.bss.* .rela.gnu.linkonce.b.*)
 *(.rela.ifunc)
 .rela.ifunc    0x0000000000003408        0x0 /opt/linux/x86-arm/aarch64-mix210-linux/host_bin/../target/usr/lib/crti.o
 .rela.init_array
                0x0000000000003408       0x18 /opt/linux/x86-arm/aarch64-mix210-linux/host_bin/../target/usr/lib/crti.o
 .rela.fini_array
                0x0000000000003420       0x18 /opt/linux/x86-arm/aarch64-mix210-linux/host_bin/../target/usr/lib/crti.o

.rela.plt       0x0000000000003438      0xea0
 *(.rela.plt)
 .rela.plt      0x0000000000003438      0xea0 /opt/linux/x86-arm/aarch64-mix210-linux/host_bin/../target/usr/lib/crti.o
 *(.rela.iplt)

.init           0x00000000000042d8       0x14
 *(SORT_NONE(.init))
 .init          0x00000000000042d8        0xc /opt/linux/x86-arm/aarch64-mix210-linux/host_bin/../target/usr/lib/crti.o
                0x00000000000042d8                _init
 .init          0x00000000000042e4        0x8 /opt/linux/x86-arm/aarch64-mix210-linux/host_bin/../target/usr/lib/crtn.o

.plt            0x00000000000042f0      0x9e0
 *(.plt)
 .plt           0x00000000000042f0      0x9e0 /opt/linux/x86-arm/aarch64-mix210-linux/host_bin/../target/usr/lib/crti.o
 *(.iplt)

.text           0x0000000000004cd0     0xb0b8
 *(.text.unlikely .text.*_unlikely .text.unlikely.*)
 *(.text.exit .text.exit.*)
 *(.text.startup .text.startup.*)
 *(.text.hot .text.hot.*)
 *(SORT_BY_NAME(.text.sorted.*))
 *(.text .stub .text.* .gnu.linkonce.t.*)
 .text          0x0000000000004cd0       0x14 /opt/linux/x86-arm/aarch64-mix210-linux/host_bin/../target/usr/lib/crti.o
 *fill*         0x0000000000004ce4        0x4 1f2003d5
 .text          0x0000000000004ce8       0xbc /opt/linux/x86-arm/aarch64-mix210-linux/host_bin/../lib/gcc/aarch64-linux-gnu/7.3.0/crtbeginS.o
 *fill*         0x0000000000004da4        0x4 1f2003d5
 .text          0x0000000000004da8      0xa10 build/arm11-gcc-uClibc-linux-gk7605v100/obj/avi_utility.o
                0x0000000000004da8                write_char
                0x0000000000004dd8                write_int32
                0x0000000000004e08                write_fourcc
                0x0000000000004e10                avi_write_data
                0x0000000000004e38                read_char
                0x0000000000004e60                read_int32
                0x0000000000004e88                read_fourcc
                0x0000000000004e90                avi_utility_read_data
                0x0000000000004eb8                avi_set_32
                0x0000000000004ed8                avi_substring
                0x0000000000004f60                last_index_at
                0x0000000000004fc0                avi_get_ch_num
                0x0000000000004fd0                avi_get_start_time
                0x0000000000005010                avi_get_stop_time
                0x0000000000005050                get_date_str
                0x00000000000050b8                get_nowtime_str
                0x0000000000005128                get_nowtime_uint
                0x0000000000005168                get_nowhm_str
                0x00000000000051c8                tm_to_dmstime
                0x00000000000051e8                tm_add_seconds
                0x0000000000005290                time_to_u64t
                0x00000000000052e8                u64t_to_time
                0x0000000000005468                u64t_add_seconds
                0x0000000000005540                cal_time_sub
                0x0000000000005610                get_u64t_now_time
                0x0000000000005658                gk_cms_ssleep
                0x00000000000056b0                gk_cms_msleep
                0x0000000000005740                avi_get_sys_runtime
 .text          0x00000000000057b8     0x1d58 build/arm11-gcc-uClibc-linux-gk7605v100/obj/mmc_api.o
                0x0000000000005aa8                grd_sd_get_free_size
                0x0000000000005b10                grd_sd_get_free_size_last
                0x0000000000005b20                grd_sd_get_all_size_ioctl
                0x0000000000005be8                grd_sd_get_all_size
                0x0000000000005c48                grd_sd_get_all_size_last
                0x0000000000005c58                grd_sd_get_fdisk_type
                0x0000000000005ce8                grd_sd_is_mount
                0x0000000000005dc8                grd_sd_mount
                0x0000000000005ed0                grd_sd_remount
                0x0000000000005fc0                grd_sd_umount
                0x0000000000006068                is_fix_format_file
                0x0000000000006108                is_fix_format_path
                0x0000000000006208                is_avi_dir_format
                0x0000000000006308                is_avi_file_format
                0x0000000000006430                is_avi_file_path_format
                0x00000000000064a8                grd_sd_is_device_exist
                0x0000000000006500                grd_sd_check_device_node
                0x0000000000006618                mmc_sdcard_write_detect
                0x0000000000006690                grd_sd_get_format_process
                0x00000000000066a0                mmc_get_sdcard_stauts
                0x00000000000066b0                grd_sd_init
                0x0000000000006750                mmc_set_sdcard_status
                0x00000000000067c8                grd_sd_format
                0x0000000000006cb8                mmc_checkFsckReset
                0x0000000000006d48                mmc_sdcard_status_check
                0x00000000000070e0                grd_sd_del_oldest_avi_file
                0x00000000000074a8                mmc_set_sdcard_status_error
                0x00000000000074b0                mmc_sdcard_status_check_init
                0x0000000000007500                mmc_sdcard_status_check_exit
 .text          0x0000000000007510     0x3a58 build/arm11-gcc-uClibc-linux-gk7605v100/obj/avi_read_api.o
                0x0000000000008360                fix_all_avi_file
                0x0000000000008a18                avi_pb_open
                0x0000000000008c60                print_pb_handle
                0x0000000000008db0                print_frame_node
                0x0000000000008e58                avi_pb_seek_by_percent
                0x0000000000008f60                avi_pb_seek_by_time
                0x0000000000009320                avi_get_frame_loop
                0x00000000000096f0                avi_get_frame_by_no
                0x0000000000009bc8                cal_pb_all_time
                0x0000000000009d30                cal_pb_seek_time
                0x000000000000a0e8                timetick_to_time
                0x000000000000a160                create_pb_handle
                0x000000000000a1c0                avi_check_file_index
                0x000000000000a430                avi_pb_slide_to_next_file
                0x000000000000a530                avi_pb_slide_to_next_file_by_time
                0x000000000000a568                avi_pb_get_frame
                0x000000000000a7f8                avi_pb_set_speed
                0x000000000000a840                avi_pb_start
                0x000000000000a878                avi_pb_restart
                0x000000000000a8e0                avi_pb_pause
                0x000000000000a908                avi_pb_close
                0x000000000000a9c8                avi_pb_get_pos
                0x000000000000a9e0                avi_pb_set_pos
                0x000000000000aaf8                avi_pb_seek
                0x000000000000abe0                avi_pb_get_time
                0x000000000000adc0                avi_mv_pic
 .text          0x000000000000af68     0x1f04 build/arm11-gcc-uClibc-linux-gk7605v100/obj/avi_rec.o
                0x000000000000bf80                thread_record_create
                0x000000000000c0c0                thread_record_close
                0x000000000000c1a8                is_thread_record_running
                0x000000000000c1c0                motion_rec_start
                0x000000000000c2c8                alarm_rec_start
                0x000000000000c460                sche_rec_start
                0x000000000000c580                sche_rec_stop
                0x000000000000c590                do_schedule_recode_by_slice
                0x000000000000c730                sche2_rec_start
                0x000000000000c808                sche2_rec_stop
                0x000000000000c860                do_schedule_recode_by_period
                0x000000000000ca38                manu_rec_start_fixtime
                0x000000000000cbb0                manu_rec_start_alltime
                0x000000000000cca0                manu_rec_stop
                0x000000000000cd28                local_record_init
                0x000000000000cdf0                local_record_uninit
 *fill*         0x000000000000ce6c        0x4 1f2003d5
 .text          0x000000000000ce70     0x1294 build/arm11-gcc-uClibc-linux-gk7605v100/obj/avi_search_api.o
                0x000000000000d270                get_file_size
                0x000000000000d330                is_empty_list
                0x000000000000d348                get_len_list
                0x000000000000d368                print_index_node
                0x000000000000d400                print_node
                0x000000000000d420                print_list
                0x000000000000d4e8                print_finddata
                0x000000000000d600                search_close
                0x000000000000d6c0                get_file_node
                0x000000000000d770                search_file_by_time
                0x000000000000dac0                search_day_by_month
                0x000000000000dcb0                write_manage_info
 *fill*         0x000000000000e104        0x4 1f2003d5
 .text          0x000000000000e108     0x1c80 build/arm11-gcc-uClibc-linux-gk7605v100/obj/avi_write_api.o
                0x000000000000e7f0                avi_record_check_file
                0x000000000000e888                avi_add_index
                0x000000000000edc8                avi_record_open
                0x000000000000f8a8                avi_record_write
                0x000000000000f918                avi_record_close
                0x000000000000fc48                avi_reocrd_check_file_stoped
                0x000000000000fc60                avi_record_write_cache
 .text          0x000000000000fd88        0x0 /opt/linux/x86-arm/aarch64-mix210-linux/host_bin/../lib/gcc/aarch64-linux-gnu/7.3.0/crtendS.o
 .text          0x000000000000fd88        0x0 /opt/linux/x86-arm/aarch64-mix210-linux/host_bin/../target/usr/lib/crtn.o
 *(.gnu.warning)

.fini           0x000000000000fd88       0x10
 *(SORT_NONE(.fini))
 .fini          0x000000000000fd88        0x8 /opt/linux/x86-arm/aarch64-mix210-linux/host_bin/../target/usr/lib/crti.o
                0x000000000000fd88                _fini
 .fini          0x000000000000fd90        0x8 /opt/linux/x86-arm/aarch64-mix210-linux/host_bin/../target/usr/lib/crtn.o
                [!provide]                        PROVIDE (__etext = .)
                [!provide]                        PROVIDE (_etext = .)
                [!provide]                        PROVIDE (etext = .)

.rodata         0x000000000000fd98     0x47d1
 *(.rodata .rodata.* .gnu.linkonce.r.*)
 .rodata.str1.8
                0x000000000000fd98       0x65 build/arm11-gcc-uClibc-linux-gk7605v100/obj/avi_utility.o
 *fill*         0x000000000000fdfd        0x3 
 .rodata.str1.8
                0x000000000000fe00      0xbc1 build/arm11-gcc-uClibc-linux-gk7605v100/obj/mmc_api.o
 *fill*         0x00000000000109c1        0x7 
 .rodata.str1.8
                0x00000000000109c8     0x13f3 build/arm11-gcc-uClibc-linux-gk7605v100/obj/avi_read_api.o
                                       0x143b (size before relaxing)
 *fill*         0x0000000000011dbb        0x5 
 .rodata.str1.8
                0x0000000000011dc0     0x162f build/arm11-gcc-uClibc-linux-gk7605v100/obj/avi_rec.o
                                       0x163f (size before relaxing)
 *fill*         0x00000000000133ef        0x1 
 .rodata.str1.8
                0x00000000000133f0      0x6ed build/arm11-gcc-uClibc-linux-gk7605v100/obj/avi_search_api.o
                                        0x79d (size before relaxing)
 *fill*         0x0000000000013add        0x3 
 .rodata        0x0000000000013ae0       0x10 build/arm11-gcc-uClibc-linux-gk7605v100/obj/avi_write_api.o
 .rodata.str1.8
                0x0000000000013af0      0xa79 build/arm11-gcc-uClibc-linux-gk7605v100/obj/avi_write_api.o
                                        0xb69 (size before relaxing)

.rodata1
 *(.rodata1)

.eh_frame_hdr   0x000000000001456c      0x454
 *(.eh_frame_hdr)
 .eh_frame_hdr  0x000000000001456c      0x454 /opt/linux/x86-arm/aarch64-mix210-linux/host_bin/../lib/gcc/aarch64-linux-gnu/7.3.0/crtbeginS.o
                0x000000000001456c                __GNU_EH_FRAME_HDR
 *(.eh_frame_entry .eh_frame_entry.*)

.eh_frame       0x00000000000149c0     0x2184
 *(.eh_frame)
 .eh_frame      0x00000000000149c0       0x78 /opt/linux/x86-arm/aarch64-mix210-linux/host_bin/../lib/gcc/aarch64-linux-gnu/7.3.0/crtbeginS.o
 .eh_frame      0x0000000000014a38      0x420 build/arm11-gcc-uClibc-linux-gk7605v100/obj/avi_utility.o
                                        0x430 (size before relaxing)
 .eh_frame      0x0000000000014e58      0x708 build/arm11-gcc-uClibc-linux-gk7605v100/obj/mmc_api.o
                                        0x718 (size before relaxing)
 .eh_frame      0x0000000000015560      0x948 build/arm11-gcc-uClibc-linux-gk7605v100/obj/avi_read_api.o
                                        0x960 (size before relaxing)
 .eh_frame      0x0000000000015ea8      0x530 build/arm11-gcc-uClibc-linux-gk7605v100/obj/avi_rec.o
                                        0x548 (size before relaxing)
 .eh_frame      0x00000000000163d8      0x408 build/arm11-gcc-uClibc-linux-gk7605v100/obj/avi_search_api.o
                                        0x420 (size before relaxing)
 .eh_frame      0x00000000000167e0      0x360 build/arm11-gcc-uClibc-linux-gk7605v100/obj/avi_write_api.o
                                        0x378 (size before relaxing)
 .eh_frame      0x0000000000016b40        0x4 /opt/linux/x86-arm/aarch64-mix210-linux/host_bin/../lib/gcc/aarch64-linux-gnu/7.3.0/crtendS.o
 *(.eh_frame.*)

.gcc_except_table
 *(.gcc_except_table .gcc_except_table.*)

.gnu_extab
 *(.gnu_extab*)

.exception_ranges
 *(.exception_ranges*)
                0x0000000000026d38                . = DATA_SEGMENT_ALIGN (CONSTANT (MAXPAGESIZE), CONSTANT (COMMONPAGESIZE))

.eh_frame
 *(.eh_frame)
 *(.eh_frame.*)

.gnu_extab
 *(.gnu_extab)

.gcc_except_table
 *(.gcc_except_table .gcc_except_table.*)

.exception_ranges
 *(.exception_ranges*)

.tdata
 *(.tdata .tdata.* .gnu.linkonce.td.*)

.tbss
 *(.tbss .tbss.* .gnu.linkonce.tb.*)
 *(.tcommon)

.preinit_array
 *(.preinit_array)

.init_array     0x0000000000026d38        0x8
 *(SORT_BY_INIT_PRIORITY(.init_array.*) SORT_BY_INIT_PRIORITY(.ctors.*))
 *(.init_array EXCLUDE_FILE(*crtend?.o *crtend.o *crtbegin?.o *crtbegin.o) .ctors)
 .init_array    0x0000000000026d38        0x8 /opt/linux/x86-arm/aarch64-mix210-linux/host_bin/../lib/gcc/aarch64-linux-gnu/7.3.0/crtbeginS.o

.fini_array     0x0000000000026d40        0x8
 *(SORT_BY_INIT_PRIORITY(.fini_array.*) SORT_BY_INIT_PRIORITY(.dtors.*))
 *(.fini_array EXCLUDE_FILE(*crtend?.o *crtend.o *crtbegin?.o *crtbegin.o) .dtors)
 .fini_array    0x0000000000026d40        0x8 /opt/linux/x86-arm/aarch64-mix210-linux/host_bin/../lib/gcc/aarch64-linux-gnu/7.3.0/crtbeginS.o

.ctors
 *crtbegin.o(.ctors)
 *crtbegin?.o(.ctors)
 *(EXCLUDE_FILE(*crtend?.o *crtend.o) .ctors)
 *(SORT_BY_NAME(.ctors.*))
 *(.ctors)

.dtors
 *crtbegin.o(.dtors)
 *crtbegin?.o(.dtors)
 *(EXCLUDE_FILE(*crtend?.o *crtend.o) .dtors)
 *(SORT_BY_NAME(.dtors.*))
 *(.dtors)

.jcr
 *(.jcr)

.data.rel.ro    0x0000000000026d48        0x0
 *(.data.rel.ro.local* .gnu.linkonce.d.rel.ro.local.*)
 *(.data.rel.ro .data.rel.ro.* .gnu.linkonce.d.rel.ro.*)
 .data.rel.ro   0x0000000000026d48        0x0 /opt/linux/x86-arm/aarch64-mix210-linux/host_bin/../target/usr/lib/crti.o

.dynamic        0x0000000000026d48      0x1d0
 *(.dynamic)
 .dynamic       0x0000000000026d48      0x1d0 /opt/linux/x86-arm/aarch64-mix210-linux/host_bin/../target/usr/lib/crti.o
                0x0000000000026d48                _DYNAMIC

.got            0x0000000000026f18       0xd0
 *(.got)
 .got           0x0000000000026f18       0xd0 /opt/linux/x86-arm/aarch64-mix210-linux/host_bin/../target/usr/lib/crti.o
                0x0000000000026f18                _GLOBAL_OFFSET_TABLE_
 *(.igot)
                0x0000000000026fe8                . = DATA_SEGMENT_RELRO_END (., 0x18)

.got.plt        0x0000000000026fe8      0x4f8
 *(.got.plt)
 .got.plt       0x0000000000026fe8      0x4f8 /opt/linux/x86-arm/aarch64-mix210-linux/host_bin/../target/usr/lib/crti.o
 *(.igot.plt)

.data           0x00000000000274e0       0x1c
                [!provide]                        PROVIDE (__data_start = .)
 *(.data .data.* .gnu.linkonce.d.*)
 .data          0x00000000000274e0        0x0 /opt/linux/x86-arm/aarch64-mix210-linux/host_bin/../target/usr/lib/crti.o
 .data          0x00000000000274e0        0x0 /opt/linux/x86-arm/aarch64-mix210-linux/host_bin/../lib/gcc/aarch64-linux-gnu/7.3.0/crtbeginS.o
 .data.rel.local
                0x00000000000274e0        0x8 /opt/linux/x86-arm/aarch64-mix210-linux/host_bin/../lib/gcc/aarch64-linux-gnu/7.3.0/crtbeginS.o
                0x00000000000274e0                __dso_handle
 .data          0x00000000000274e8        0x0 build/arm11-gcc-uClibc-linux-gk7605v100/obj/avi_utility.o
 .data          0x00000000000274e8        0x4 build/arm11-gcc-uClibc-linux-gk7605v100/obj/mmc_api.o
 .data          0x00000000000274ec        0x4 build/arm11-gcc-uClibc-linux-gk7605v100/obj/avi_read_api.o
                0x00000000000274ec                avi_pb_speed
 .data          0x00000000000274f0        0x8 build/arm11-gcc-uClibc-linux-gk7605v100/obj/avi_rec.o
                0x00000000000274f4                rec_buf_size
 .data          0x00000000000274f8        0x0 build/arm11-gcc-uClibc-linux-gk7605v100/obj/avi_search_api.o
 .data          0x00000000000274f8        0x4 build/arm11-gcc-uClibc-linux-gk7605v100/obj/avi_write_api.o
 .data          0x00000000000274fc        0x0 /opt/linux/x86-arm/aarch64-mix210-linux/host_bin/../lib/gcc/aarch64-linux-gnu/7.3.0/crtendS.o
 .data          0x00000000000274fc        0x0 /opt/linux/x86-arm/aarch64-mix210-linux/host_bin/../target/usr/lib/crtn.o

.tm_clone_table
                0x0000000000027500        0x0
 .tm_clone_table
                0x0000000000027500        0x0 /opt/linux/x86-arm/aarch64-mix210-linux/host_bin/../lib/gcc/aarch64-linux-gnu/7.3.0/crtbeginS.o
 .tm_clone_table
                0x0000000000027500        0x0 /opt/linux/x86-arm/aarch64-mix210-linux/host_bin/../lib/gcc/aarch64-linux-gnu/7.3.0/crtendS.o

.data1
 *(.data1)
                [!provide]                        PROVIDE (_edata = .)
                [!provide]                        PROVIDE (edata = .)
                0x0000000000027500                . = .
                [!provide]                        PROVIDE (__bss_start = .)
                [!provide]                        PROVIDE (__bss_start__ = .)

.bss            0x0000000000027500      0x428
 *(.dynbss)
 .dynbss        0x0000000000027500        0x0 /opt/linux/x86-arm/aarch64-mix210-linux/host_bin/../target/usr/lib/crti.o
 *(.bss .bss.* .gnu.linkonce.b.*)
 .bss           0x0000000000027500        0x0 /opt/linux/x86-arm/aarch64-mix210-linux/host_bin/../target/usr/lib/crti.o
 .bss           0x0000000000027500        0x1 /opt/linux/x86-arm/aarch64-mix210-linux/host_bin/../lib/gcc/aarch64-linux-gnu/7.3.0/crtbeginS.o
 .bss           0x0000000000027501        0x0 build/arm11-gcc-uClibc-linux-gk7605v100/obj/avi_utility.o
 *fill*         0x0000000000027501        0x7 
 .bss           0x0000000000027508      0x198 build/arm11-gcc-uClibc-linux-gk7605v100/obj/mmc_api.o
                0x0000000000027698                format_process
                0x000000000002769c                grd_sd_is_formated
 .bss           0x00000000000276a0        0x4 build/arm11-gcc-uClibc-linux-gk7605v100/obj/avi_read_api.o
                0x00000000000276a0                avi_flag_pause
 *fill*         0x00000000000276a4        0x4 
 .bss           0x00000000000276a8      0x1c8 build/arm11-gcc-uClibc-linux-gk7605v100/obj/avi_rec.o
                0x0000000000027808                rec_duration
                0x0000000000027810                readerId
                0x0000000000027818                rec_func_pid
                0x0000000000027820                rec_pthread_running
                0x0000000000027828                rec_time_mutex_t
                0x0000000000027858                rec_module_init
                0x000000000002785c                data_array_pos
                0x0000000000027860                data_array_index
                0x0000000000027868                data_array
 .bss           0x0000000000027870        0x0 build/arm11-gcc-uClibc-linux-gk7605v100/obj/avi_search_api.o
 .bss           0x0000000000027870       0xb1 build/arm11-gcc-uClibc-linux-gk7605v100/obj/avi_write_api.o
 .bss           0x0000000000027921        0x0 /opt/linux/x86-arm/aarch64-mix210-linux/host_bin/../lib/gcc/aarch64-linux-gnu/7.3.0/crtendS.o
 .bss           0x0000000000027921        0x0 /opt/linux/x86-arm/aarch64-mix210-linux/host_bin/../target/usr/lib/crtn.o
 *(COMMON)
                0x0000000000027928                . = ALIGN ((. != 0x0)?0x8:0x1)
 *fill*         0x0000000000027921        0x7 
                [!provide]                        PROVIDE (_bss_end__ = .)
                [!provide]                        PROVIDE (__bss_end__ = .)
                0x0000000000027928                . = ALIGN (0x8)
                0x0000000000027928                . = SEGMENT_START ("ldata-segment", .)
                0x0000000000027928                . = ALIGN (0x8)
                [!provide]                        PROVIDE (__end__ = .)
                [!provide]                        PROVIDE (_end = .)
                [!provide]                        PROVIDE (end = .)
                0x0000000000027928                . = DATA_SEGMENT_END (.)

.stab
 *(.stab)

.stabstr
 *(.stabstr)

.stab.excl
 *(.stab.excl)

.stab.exclstr
 *(.stab.exclstr)

.stab.index
 *(.stab.index)

.stab.indexstr
 *(.stab.indexstr)

.comment        0x0000000000000000       0x16
 *(.comment)
 .comment       0x0000000000000000       0x16 /opt/linux/x86-arm/aarch64-mix210-linux/host_bin/../lib/gcc/aarch64-linux-gnu/7.3.0/crtbeginS.o
                                         0x17 (size before relaxing)
 .comment       0x0000000000000016       0x17 build/arm11-gcc-uClibc-linux-gk7605v100/obj/avi_utility.o
 .comment       0x0000000000000016       0x17 build/arm11-gcc-uClibc-linux-gk7605v100/obj/mmc_api.o
 .comment       0x0000000000000016       0x17 build/arm11-gcc-uClibc-linux-gk7605v100/obj/avi_read_api.o
 .comment       0x0000000000000016       0x17 build/arm11-gcc-uClibc-linux-gk7605v100/obj/avi_rec.o
 .comment       0x0000000000000016       0x17 build/arm11-gcc-uClibc-linux-gk7605v100/obj/avi_search_api.o
 .comment       0x0000000000000016       0x17 build/arm11-gcc-uClibc-linux-gk7605v100/obj/avi_write_api.o
 .comment       0x0000000000000016       0x17 /opt/linux/x86-arm/aarch64-mix210-linux/host_bin/../lib/gcc/aarch64-linux-gnu/7.3.0/crtendS.o

.gnu.build.attributes
 *(.gnu.build.attributes .gnu.build.attributes.*)

.debug
 *(.debug)

.line
 *(.line)

.debug_srcinfo
 *(.debug_srcinfo)

.debug_sfnames
 *(.debug_sfnames)

.debug_aranges
 *(.debug_aranges)

.debug_pubnames
 *(.debug_pubnames)

.debug_info
 *(.debug_info .gnu.linkonce.wi.*)

.debug_abbrev
 *(.debug_abbrev)

.debug_line
 *(.debug_line .debug_line.* .debug_line_end)

.debug_frame
 *(.debug_frame)

.debug_str
 *(.debug_str)

.debug_loc
 *(.debug_loc)

.debug_macinfo
 *(.debug_macinfo)

.debug_weaknames
 *(.debug_weaknames)

.debug_funcnames
 *(.debug_funcnames)

.debug_typenames
 *(.debug_typenames)

.debug_varnames
 *(.debug_varnames)

.debug_pubtypes
 *(.debug_pubtypes)

.debug_ranges
 *(.debug_ranges)

.debug_macro
 *(.debug_macro)

.debug_addr
 *(.debug_addr)

.ARM.attributes
 *(.ARM.attributes)
 *(.gnu.attributes)

.note.gnu.arm.ident
 *(.note.gnu.arm.ident)

/DISCARD/
 *(.note.GNU-stack)
 *(.gnu_debuglink)
 *(.gnu.lto_*)
OUTPUT(build/arm11-gcc-uClibc-linux-gk7605v100/lib/libapp_avi.so elf64-littleaarch64)
LOAD linker stubs
